; Function Attrs: mustprogress uwtable
define hidden void @_ZNK6Assimp7Blender9Structure7ConvertINS0_15CustomDataLayerEEEvRT_RKNS0_12FileDatabaseE(ptr noundef nonnull align 8 dereferenceable(120) %0, ptr noundef nonnull align 8 dereferenceable(128) %1, ptr noundef nonnull align 8 dereferenceable(232) %2) local_unnamed_addr #0 align 2 personality ptr @__gxx_personality_v0 {
  %4 = getelementptr inbounds nuw i8, ptr %1, i64 16
  tail call void @_ZNK6Assimp7Blender9Structure9ReadFieldILi2EiEEvRT0_PKcRKNS0_12FileDatabaseE(ptr noundef nonnull align 8 dereferenceable(120) %0, ptr noundef nonnull align 4 dereferenceable(4) %4, ptr noundef nonnull @.str.1, ptr noundef nonnull align 8 dereferenceable(232) %2)
  %5 = getelementptr inbounds nuw i8, ptr %1, i64 20
  tail call void @_ZNK6Assimp7Blender9Structure9ReadFieldILi2EiEEvRT0_PKcRKNS0_12FileDatabaseE(ptr noundef nonnull align 8 dereferenceable(120) %0, ptr noundef nonnull align 4 dereferenceable(4) %5, ptr noundef nonnull @.str.263, ptr noundef nonnull align 8 dereferenceable(232) %2)
  %6 = getelementptr inbounds nuw i8, ptr %1, i64 24
  tail call void @_ZNK6Assimp7Blender9Structure9ReadFieldILi2EiEEvRT0_PKcRKNS0_12FileDatabaseE(ptr noundef nonnull align 8 dereferenceable(120) %0, ptr noundef nonnull align 4 dereferenceable(4) %6, ptr noundef nonnull @.str.51, ptr noundef nonnull align 8 dereferenceable(232) %2)
  %7 = getelementptr inbounds nuw i8, ptr %1, i64 28
  tail call void @_ZNK6Assimp7Blender9Structure9ReadFieldILi2EiEEvRT0_PKcRKNS0_12FileDatabaseE(ptr noundef nonnull align 8 dereferenceable(120) %0, ptr noundef nonnull align 4 dereferenceable(4) %7, ptr noundef nonnull @.str.264, ptr noundef nonnull align 8 dereferenceable(232) %2)
  %8 = getelementptr inbounds nuw i8, ptr %1, i64 32
  tail call void @_ZNK6Assimp7Blender9Structure9ReadFieldILi2EiEEvRT0_PKcRKNS0_12FileDatabaseE(ptr noundef nonnull align 8 dereferenceable(120) %0, ptr noundef nonnull align 4 dereferenceable(4) %8, ptr noundef nonnull @.str.265, ptr noundef nonnull align 8 dereferenceable(232) %2)
  %9 = getelementptr inbounds nuw i8, ptr %1, i64 36
  tail call void @_ZNK6Assimp7Blender9Structure9ReadFieldILi1EiEEvRT0_PKcRKNS0_12FileDatabaseE(ptr noundef nonnull align 8 dereferenceable(120) %0, ptr noundef nonnull align 4 dereferenceable(4) %9, ptr noundef nonnull @.str.266, ptr noundef nonnull align 8 dereferenceable(232) %2)
  %10 = getelementptr inbounds nuw i8, ptr %1, i64 40
  tail call void @_ZNK6Assimp7Blender9Structure9ReadFieldILi1EiEEvRT0_PKcRKNS0_12FileDatabaseE(ptr noundef nonnull align 8 dereferenceable(120) %0, ptr noundef nonnull align 4 dereferenceable(4) %10, ptr noundef nonnull @.str.267, ptr noundef nonnull align 8 dereferenceable(232) %2)
  %11 = getelementptr inbounds nuw i8, ptr %1, i64 44
  tail call void @_ZNK6Assimp7Blender9Structure9ReadFieldILi1EiEEvRT0_PKcRKNS0_12FileDatabaseE(ptr noundef nonnull align 8 dereferenceable(120) %0, ptr noundef nonnull align 4 dereferenceable(4) %11, ptr noundef nonnull @.str.268, ptr noundef nonnull align 8 dereferenceable(232) %2)
  %12 = getelementptr inbounds nuw i8, ptr %1, i64 48
  tail call void @_ZNK6Assimp7Blender9Structure14ReadFieldArrayILi1EcLm64EEEvRAT1__T0_PKcRKNS0_12FileDatabaseE(ptr noundef nonnull align 8 dereferenceable(120) %0, ptr noundef nonnull align 1 dereferenceable(64) %12, ptr noundef nonnull @.str.224, ptr noundef nonnull align 8 dereferenceable(232) %2)
  %13 = getelementptr inbounds nuw i8, ptr %1, i64 112
  %14 = load i32, ptr %4, align 8
  %15 = tail call noundef zeroext i1 @_ZNK6Assimp7Blender9Structure17ReadCustomDataPtrILi2EEEbRSt10shared_ptrINS0_8ElemBaseEEiPKcRKNS0_12FileDatabaseE(ptr noundef nonnull align 8 dereferenceable(120) %0, ptr noundef nonnull align 8 dereferenceable(16) %13, i32 noundef %14, ptr noundef nonnull @.str.11, ptr noundef nonnull align 8 dereferenceable(232) %2)
  %16 = getelementptr inbounds nuw i8, ptr %2, i64 128
  %17 = load ptr, ptr %16, align 8
  %18 = getelementptr inbounds nuw i8, ptr %0, i64 104
  %19 = load i64, ptr %18, align 8
  %20 = getelementptr inbounds nuw i8, ptr %17, i64 24
  %21 = load ptr, ptr %20, align 8
  %22 = getelementptr inbounds i8, ptr %21, i64 %19
  store ptr %22, ptr %20, align 8
  %23 = getelementptr inbounds nuw i8, ptr %17, i64 40
  %24 = load ptr, ptr %23, align 8
  %25 = icmp ugt ptr %22, %24
  br i1 %25, label %26, label %_ZN6Assimp12StreamReaderILb1ELb1EE6IncPtrEl.exit

26:                                               ; preds = %3
  %27 = tail call ptr @__cxa_allocate_exception(i64 16) #23
  invoke void @_ZN17DeadlyImportErrorC2EPKc(ptr noundef nonnull align 8 dereferenceable(16) %27, ptr noundef nonnull @.str.307)
          to label %28 unwind label %29

28:                                               ; preds = %26
  tail call void @__cxa_throw(ptr nonnull %27, ptr nonnull @_ZTI17DeadlyImportError, ptr nonnull @_ZNSt13runtime_errorD2Ev) #24
  unreachable

29:                                               ; preds = %26
  %30 = landingpad { ptr, i32 }
          cleanup
  tail call void @__cxa_free_exception(ptr nonnull %27) #23
  resume { ptr, i32 } %30

_ZN6Assimp12StreamReaderILb1ELb1EE6IncPtrEl.exit: ; preds = %3
  ret void
}